target datalayout = "e-m:e-p270:32:32-p271:32:32-p272:64:64-i64:64-i128:128-f80:128-n8:16:32:64-S128"
target triple = "x86_64-pc-linux-gnu"

%struct._lv_global_t = type { i8, i8, %struct.lv_ll_t, ptr, ptr, %struct.lv_ll_t, i8, i32, i32, ptr, %struct.lv_ll_t, ptr, %struct.lv_ll_t, ptr, ptr, i32, ptr, i8, i32, i32, ptr, i32, %struct.lv_timer_state_t, %struct.lv_anim_state_t, %struct.lv_tick_state_t, %struct._lv_draw_buf_handlers_t, %struct._lv_draw_buf_handlers_t, %struct._lv_draw_buf_handlers_t, %struct.lv_ll_t, ptr, ptr, %struct.lv_draw_global_info_t, [4 x %struct.lv_draw_sw_mask_radius_circle_dsc_t], ptr, ptr, ptr, %struct.lv_tlsf_state_t, %struct.lv_ll_t, ptr, ptr, %struct.lv_style_t, i64, ptr, i32, ptr }
%struct.lv_timer_state_t = type { %struct.lv_ll_t, i8, i8, i8, i8, i32, i8, i32, i32, i32, i32, ptr, ptr }
%struct.lv_anim_state_t = type { i8, i8, ptr, %struct.lv_ll_t }
%struct.lv_tick_state_t = type { i32, i8, ptr, ptr }
%struct._lv_draw_buf_handlers_t = type { ptr, ptr, ptr, ptr, ptr, ptr }
%struct.lv_draw_global_info_t = type { ptr, i32, i32, i32, i32, i8 }
%struct.lv_draw_sw_mask_radius_circle_dsc_t = type { ptr, ptr, ptr, ptr, i32, i32, i32 }
%struct.lv_tlsf_state_t = type { ptr, i64, i64, %struct.lv_ll_t }
%struct.lv_ll_t = type { i32, ptr, ptr }
%struct.lv_style_t = type { ptr, i32, i8 }

@lv_global = external global %struct._lv_global_t, align 8

; Function Attrs: nounwind uwtable
define ptr @lv_realloc_core(ptr noundef %0, i64 noundef %1) #0 {
  %3 = alloca ptr, align 8
  %4 = alloca i64, align 8
  %5 = alloca i64, align 8
  %6 = alloca ptr, align 8
  store ptr %0, ptr %3, align 8, !tbaa !30
  store i64 %1, ptr %4, align 8, !tbaa !31
  call void @llvm.lifetime.start.p0(i64 8, ptr %5) #4
  %7 = load ptr, ptr %3, align 8, !tbaa !30
  %8 = call i64 @lv_tlsf_block_size(ptr noundef %7)
  store i64 %8, ptr %5, align 8, !tbaa !31
  call void @llvm.lifetime.start.p0(i64 8, ptr %6) #4
  %9 = load ptr, ptr getelementptr inbounds nuw (%struct._lv_global_t, ptr @lv_global, i32 0, i32 36), align 8, !tbaa !3
  %10 = load ptr, ptr %3, align 8, !tbaa !30
  %11 = load i64, ptr %4, align 8, !tbaa !31
  %12 = call ptr @lv_tlsf_realloc(ptr noundef %9, ptr noundef %10, i64 noundef %11)
  store ptr %12, ptr %6, align 8, !tbaa !30
  %13 = load ptr, ptr %6, align 8, !tbaa !30
  %14 = icmp ne ptr %13, null
  br i1 %14, label %15, label %32

15:                                               ; preds = %2
  %16 = load i64, ptr %5, align 8, !tbaa !31
  %17 = load i64, ptr getelementptr inbounds nuw (%struct.lv_tlsf_state_t, ptr getelementptr inbounds nuw (%struct._lv_global_t, ptr @lv_global, i32 0, i32 36), i32 0, i32 1), align 8, !tbaa !34
  %18 = sub i64 %17, %16
  store i64 %18, ptr getelementptr inbounds nuw (%struct.lv_tlsf_state_t, ptr getelementptr inbounds nuw (%struct._lv_global_t, ptr @lv_global, i32 0, i32 36), i32 0, i32 1), align 8, !tbaa !34
  %19 = load ptr, ptr %6, align 8, !tbaa !30
  %20 = call i64 @lv_tlsf_block_size(ptr noundef %19)
  %21 = load i64, ptr getelementptr inbounds nuw (%struct.lv_tlsf_state_t, ptr getelementptr inbounds nuw (%struct._lv_global_t, ptr @lv_global, i32 0, i32 36), i32 0, i32 1), align 8, !tbaa !34
  %22 = add i64 %21, %20
  store i64 %22, ptr getelementptr inbounds nuw (%struct.lv_tlsf_state_t, ptr getelementptr inbounds nuw (%struct._lv_global_t, ptr @lv_global, i32 0, i32 36), i32 0, i32 1), align 8, !tbaa !34
  %23 = load i64, ptr getelementptr inbounds nuw (%struct.lv_tlsf_state_t, ptr getelementptr inbounds nuw (%struct._lv_global_t, ptr @lv_global, i32 0, i32 36), i32 0, i32 1), align 8, !tbaa !34
  %24 = load i64, ptr getelementptr inbounds nuw (%struct.lv_tlsf_state_t, ptr getelementptr inbounds nuw (%struct._lv_global_t, ptr @lv_global, i32 0, i32 36), i32 0, i32 2), align 8, !tbaa !35
  %25 = icmp ugt i64 %23, %24
  br i1 %25, label %26, label %28

26:                                               ; preds = %15
  %27 = load i64, ptr getelementptr inbounds nuw (%struct.lv_tlsf_state_t, ptr getelementptr inbounds nuw (%struct._lv_global_t, ptr @lv_global, i32 0, i32 36), i32 0, i32 1), align 8, !tbaa !34
  br label %30

28:                                               ; preds = %15
  %29 = load i64, ptr getelementptr inbounds nuw (%struct.lv_tlsf_state_t, ptr getelementptr inbounds nuw (%struct._lv_global_t, ptr @lv_global, i32 0, i32 36), i32 0, i32 2), align 8, !tbaa !35
  br label %30

30:                                               ; preds = %28, %26
  %31 = phi i64 [ %27, %26 ], [ %29, %28 ]
  store i64 %31, ptr getelementptr inbounds nuw (%struct.lv_tlsf_state_t, ptr getelementptr inbounds nuw (%struct._lv_global_t, ptr @lv_global, i32 0, i32 36), i32 0, i32 2), align 8, !tbaa !35
  br label %32

32:                                               ; preds = %30, %2
  %33 = load ptr, ptr %6, align 8, !tbaa !30
  call void @llvm.lifetime.end.p0(i64 8, ptr %6) #4
  call void @llvm.lifetime.end.p0(i64 8, ptr %5) #4
  ret ptr %33
}