; Function Attrs: nounwind uwtable
define ptr @lv_realloc_core(ptr noundef %0, i64 noundef %1) local_unnamed_addr #0 {
  %3 = tail call i64 @lv_tlsf_block_size(ptr noundef %0) #4
  %4 = load ptr, ptr getelementptr inbounds nuw (i8, ptr @lv_global, i64 784), align 8, !tbaa !3
  %5 = tail call ptr @lv_tlsf_realloc(ptr noundef %4, ptr noundef %0, i64 noundef %1) #4
  %.not = icmp eq ptr %5, null
  br i1 %.not, label %14, label %6

6:                                                ; preds = %2
  %7 = load i64, ptr getelementptr inbounds nuw (i8, ptr @lv_global, i64 792), align 8, !tbaa !33
  %8 = sub i64 %7, %3
  store i64 %8, ptr getelementptr inbounds nuw (i8, ptr @lv_global, i64 792), align 8, !tbaa !33
  %9 = tail call i64 @lv_tlsf_block_size(ptr noundef nonnull %5) #4
  %10 = load i64, ptr getelementptr inbounds nuw (i8, ptr @lv_global, i64 792), align 8, !tbaa !33
  %11 = add i64 %10, %9
  store i64 %11, ptr getelementptr inbounds nuw (i8, ptr @lv_global, i64 792), align 8, !tbaa !33
  %12 = load i64, ptr getelementptr inbounds nuw (i8, ptr @lv_global, i64 800), align 8, !tbaa !34
  %13 = tail call i64 @llvm.umax.i64(i64 %11, i64 %12)
  store i64 %13, ptr getelementptr inbounds nuw (i8, ptr @lv_global, i64 800), align 8, !tbaa !34
  br label %14

14:                                               ; preds = %6, %2
  ret ptr %5
}